; Function Attrs: nounwind sspstrong uwtable
define internal i32 @property_name_to_ctype(ptr noundef %0, ptr noundef %1, ptr noundef %2) #0 {
  %4 = ptrtoint ptr %2 to i64
  %5 = ptrtoint ptr %1 to i64
  %6 = sub i64 %4, %5
  %7 = and i64 %6, 4294967295
  %8 = add nsw i64 %7, -3
  %or.cond.i = icmp ult i64 %8, 6
  br i1 %or.cond.i, label %9, label %.critedge28.thread.i

9:                                                ; preds = %3
  %.val.i = load i8, ptr %1, align 1, !tbaa !6
  %10 = getelementptr i8, ptr %1, i64 2
  %.val29.i = load i8, ptr %10, align 1, !tbaa !6
  %11 = trunc i64 %6 to i32
  %12 = zext i8 %.val29.i to i64
  %13 = getelementptr inbounds nuw [128 x i8], ptr @onig_jis_property_hash.asso_values, i64 0, i64 %12
  %14 = load i8, ptr %13, align 1, !tbaa !6
  %15 = zext i8 %14 to i32
  %16 = add nuw nsw i32 %15, %11
  %17 = zext i8 %.val.i to i64
  %18 = getelementptr inbounds nuw [128 x i8], ptr @onig_jis_property_hash.asso_values, i64 0, i64 %17
  %19 = load i8, ptr %18, align 1, !tbaa !6
  %20 = zext i8 %19 to i32
  %21 = add nuw nsw i32 %16, %20
  %22 = icmp samesign ult i32 %21, 13
  br i1 %22, label %23, label %.critedge28.thread.i

23:                                               ; preds = %9
  %24 = zext nneg i32 %21 to i64
  %25 = getelementptr inbounds nuw [13 x %struct.enc_property], ptr @onig_jis_property.wordlist, i64 0, i64 %24
  %26 = load i8, ptr %25, align 2, !tbaa !19
  %27 = icmp sgt i8 %26, -1
  br i1 %27, label %28, label %.critedge28.thread.i

28:                                               ; preds = %23
  %29 = zext nneg i8 %26 to i64
  %30 = getelementptr inbounds nuw i8, ptr @onig_jis_property_pool_contents, i64 %29
  %31 = load i8, ptr %30, align 1, !tbaa !6
  %32 = xor i8 %31, %.val.i
  %33 = and i8 %32, -33
  %34 = icmp eq i8 %33, 0
  br i1 %34, label %35, label %.critedge28.thread.i

35:                                               ; preds = %28
  %36 = getelementptr inbounds nuw i8, ptr %1, i64 %7
  %37 = tail call i32 @onigenc_with_ascii_strnicmp(ptr noundef nonnull @OnigEncodingASCII, ptr noundef nonnull %1, ptr noundef nonnull %36, ptr noundef nonnull %30, i32 noundef %11) #7
  %.not.i = icmp eq i32 %37, 0
  br i1 %.not.i, label %38, label %.critedge28.thread.i

38:                                               ; preds = %35
  %39 = getelementptr inbounds nuw i8, ptr %30, i64 %7
  %40 = load i8, ptr %39, align 1, !tbaa !6
  %41 = icmp eq i8 %40, 0
  br i1 %41, label %onig_jis_property.exit, label %.critedge28.thread.i

.critedge28.thread.i:                             ; preds = %9, %23, %28, %35, %38, %3
  %42 = tail call i32 @onigenc_minimum_property_name_to_ctype(ptr noundef %0, ptr noundef %1, ptr noundef %2) #7
  br label %46

onig_jis_property.exit:                           ; preds = %38
  %43 = getelementptr inbounds nuw i8, ptr %25, i64 1
  %44 = load i8, ptr %43, align 1, !tbaa !21
  %45 = zext i8 %44 to i32
  br label %46

46:                                               ; preds = %onig_jis_property.exit, %.critedge28.thread.i
  %.0 = phi i32 [ %45, %onig_jis_property.exit ], [ %42, %.critedge28.thread.i ]
  ret i32 %.0
}